; Function Attrs: mustprogress nofree norecurse nosync nounwind willreturn memory(none) uwtable
define hidden noundef zeroext i1 @_ZN10VectorNode15is_shift_opcodeEi(i32 noundef %0) local_unnamed_addr #0 align 2 {
  switch i32 %0, label %2 [
    i32 185, label %3
    i32 186, label %3
    i32 283, label %3
    i32 284, label %3
    i32 349, label %3
    i32 350, label %3
    i32 351, label %3
    i32 352, label %3
  ]

2:                                                ; preds = %1
  br label %3

3:                                                ; preds = %1, %1, %1, %1, %1, %1, %1, %1, %2
  %.0 = phi i1 [ false, %2 ], [ true, %1 ], [ true, %1 ], [ true, %1 ], [ true, %1 ], [ true, %1 ], [ true, %1 ], [ true, %1 ], [ true, %1 ]
  ret i1 %.0
}